; Function Attrs: mustprogress uwtable
define hidden void @_ZN2cv5gimpl6passes13dumpDotToFileERN3ade6passes11PassContextERKNSt7__cxx1112basic_stringIcSt11char_traitsIcESaIcEEE(ptr nocapture noundef nonnull readonly align 8 dereferenceable(8) %0, ptr noundef nonnull align 8 dereferenceable(32) %1) local_unnamed_addr #3 personality ptr @__gxx_personality_v0 {
  %3 = alloca %"class.std::basic_ofstream", align 8
  call void @_ZNSt14basic_ofstreamIcSt11char_traitsIcEEC1ERKNSt7__cxx1112basic_stringIcS1_SaIcEEESt13_Ios_Openmode(ptr noundef nonnull align 8 dereferenceable(248) %3, ptr noundef nonnull align 8 dereferenceable(32) %1, i32 noundef 16)
  %4 = invoke noundef zeroext i1 @_ZNSt14basic_ofstreamIcSt11char_traitsIcEE7is_openEv(ptr noundef nonnull align 8 dereferenceable(248) %3)
          to label %5 unwind label %9

5:                                                ; preds = %2
  br i1 %4, label %6, label %11

6:                                                ; preds = %5
  %7 = load ptr, ptr %0, align 8
  invoke void @_ZN2cv5gimpl6passes7dumpDotERKN3ade5GraphERSo(ptr noundef nonnull align 8 dereferenceable(168) %7, ptr noundef nonnull align 8 dereferenceable(8) %3)
          to label %_ZN2cv5gimpl6passes7dumpDotERN3ade6passes11PassContextERSo.exit unwind label %9

_ZN2cv5gimpl6passes7dumpDotERN3ade6passes11PassContextERSo.exit: ; preds = %6
  %8 = invoke noundef nonnull align 8 dereferenceable(8) ptr @_ZNSolsEPFRSoS_E(ptr noundef nonnull align 8 dereferenceable(8) %3, ptr noundef nonnull @_ZSt4endlIcSt11char_traitsIcEERSt13basic_ostreamIT_T0_ES6_)
          to label %11 unwind label %9

9:                                                ; preds = %6, %_ZN2cv5gimpl6passes7dumpDotERN3ade6passes11PassContextERSo.exit, %2
  %10 = landingpad { ptr, i32 }
          cleanup
  call void @_ZNSt14basic_ofstreamIcSt11char_traitsIcEED1Ev(ptr noundef nonnull align 8 dereferenceable(248) %3) #19
  resume { ptr, i32 } %10

11:                                               ; preds = %_ZN2cv5gimpl6passes7dumpDotERN3ade6passes11PassContextERSo.exit, %5
  call void @_ZNSt14basic_ofstreamIcSt11char_traitsIcEED1Ev(ptr noundef nonnull align 8 dereferenceable(248) %3) #19
  ret void
}